target datalayout = "e-m:e-p270:32:32-p271:32:32-p272:64:64-i64:64-i128:128-f80:128-n8:16:32:64-S128"
target triple = "x86_64-pc-linux-gnu"

; Function Attrs: nounwind uwtable
define double @Abc_Word2Double(i64 noundef %0) #0 {
  %2 = alloca i64, align 8
  %3 = alloca double, align 8
  %4 = alloca i32, align 4
  store i64 %0, ptr %2, align 8, !tbaa !95
  call void @llvm.lifetime.start.p0(i64 8, ptr %3) #12
  store double 0.000000e+00, ptr %3, align 8, !tbaa !76
  call void @llvm.lifetime.start.p0(i64 4, ptr %4) #12
  store i32 0, ptr %4, align 4, !tbaa !3
  br label %5

5:                                                ; preds = %22, %1
  %6 = load i32, ptr %4, align 4, !tbaa !3
  %7 = icmp slt i32 %6, 64
  br i1 %7, label %8, label %25

8:                                                ; preds = %5
  %9 = load i64, ptr %2, align 8, !tbaa !95
  %10 = load i32, ptr %4, align 4, !tbaa !3
  %11 = zext i32 %10 to i64
  %12 = lshr i64 %9, %11
  %13 = and i64 %12, 1
  %14 = icmp ne i64 %13, 0
  br i1 %14, label %15, label %21

15:                                               ; preds = %8
  %16 = load i32, ptr %4, align 4, !tbaa !3
  %17 = sitofp i32 %16 to double
  %18 = call double @pow(double noundef 2.000000e+00, double noundef %17) #12, !tbaa !3
  %19 = load double, ptr %3, align 8, !tbaa !76
  %20 = fadd double %19, %18
  store double %20, ptr %3, align 8, !tbaa !76
  br label %21

21:                                               ; preds = %15, %8
  br label %22

22:                                               ; preds = %21
  %23 = load i32, ptr %4, align 4, !tbaa !3
  %24 = add nsw i32 %23, 1
  store i32 %24, ptr %4, align 4, !tbaa !3
  br label %5, !llvm.loop !118

25:                                               ; preds = %5
  %26 = load double, ptr %3, align 8, !tbaa !76
  call void @llvm.lifetime.end.p0(i64 4, ptr %4) #12
  call void @llvm.lifetime.end.p0(i64 8, ptr %3) #12
  ret double %26
}