; Function Attrs: nounwind uwtable
define double @Abc_Word2Double(i64 noundef %0) local_unnamed_addr #1 {
  br label %2

2:                                                ; preds = %1, %9
  %indvars.iv = phi i64 [ 0, %1 ], [ %indvars.iv.next, %9 ]
  %.067 = phi double [ 0.000000e+00, %1 ], [ %.1, %9 ]
  %3 = shl nuw i64 1, %indvars.iv
  %4 = and i64 %3, %0
  %.not = icmp eq i64 %4, 0
  br i1 %.not, label %9, label %5

5:                                                ; preds = %2
  %6 = trunc nuw nsw i64 %indvars.iv to i32
  %7 = uitofp nneg i32 %6 to double
  %exp2 = tail call double @exp2(double %7) #23
  %8 = fadd double %.067, %exp2
  br label %9

9:                                                ; preds = %2, %5
  %.1 = phi double [ %8, %5 ], [ %.067, %2 ]
  %indvars.iv.next = add nuw nsw i64 %indvars.iv, 1
  %exitcond.not = icmp eq i64 %indvars.iv.next, 64
  br i1 %exitcond.not, label %10, label %2, !llvm.loop !109

10:                                               ; preds = %9
  ret double %.1
}